; Function Attrs: mustprogress uwtable
define hidden void @_ZNK3smt10theory_seq12solution_map7displayERSo(ptr nocapture noundef nonnull readonly align 8 dereferenceable(104) %this, ptr noundef nonnull align 8 dereferenceable(8) %out) local_unnamed_addr #3 align 2 {
entry:
  %m_map = getelementptr inbounds i8, ptr %this, i64 16
  %0 = load ptr, ptr %m_map, align 8
  %cmp.i.i = icmp eq ptr %0, null
  br i1 %cmp.i.i, label %for.end, label %_ZNK6vectorIN3smt10theory_seq8expr_depELb0EjE3endEv.exit

_ZNK6vectorIN3smt10theory_seq8expr_depELb0EjE3endEv.exit: ; preds = %entry
  %arrayidx.i.i = getelementptr inbounds i8, ptr %0, i64 -4
  %1 = load i32, ptr %arrayidx.i.i, align 4
  %2 = zext i32 %1 to i64
  %add.ptr.i = getelementptr inbounds %"struct.smt::theory_seq::expr_dep", ptr %0, i64 %2
  %cmp.not12 = icmp eq i32 %1, 0
  br i1 %cmp.not12, label %for.end, label %for.body

for.body:                                         ; preds = %_ZNK6vectorIN3smt10theory_seq8expr_depELb0EjE3endEv.exit, %for.inc
  %__begin1.013 = phi ptr [ %incdec.ptr, %for.inc ], [ %0, %_ZNK6vectorIN3smt10theory_seq8expr_depELb0EjE3endEv.exit ]
  %3 = load ptr, ptr %__begin1.013, align 8
  %tobool.not = icmp eq ptr %3, null
  br i1 %tobool.not, label %for.inc, label %if.then

if.then:                                          ; preds = %for.body
  %4 = load ptr, ptr %this, align 8
  tail call void @_Z17ast_ll_bounded_ppRSoR11ast_managerP3astj(ptr noundef nonnull align 8 dereferenceable(8) %out, ptr noundef nonnull align 8 dereferenceable(976) %4, ptr noundef nonnull %3, i32 noundef 2)
  %call5 = tail call noundef nonnull align 8 dereferenceable(8) ptr @_ZStlsISt11char_traitsIcEERSt13basic_ostreamIcT_ES5_PKc(ptr noundef nonnull align 8 dereferenceable(8) %out, ptr noundef nonnull @.str)
  %e = getelementptr inbounds i8, ptr %__begin1.013, i64 8
  %5 = load ptr, ptr %e, align 8
  %6 = load ptr, ptr %this, align 8
  tail call void @_Z17ast_ll_bounded_ppRSoR11ast_managerP3astj(ptr noundef nonnull align 8 dereferenceable(8) %call5, ptr noundef nonnull align 8 dereferenceable(976) %6, ptr noundef %5, i32 noundef 2)
  %call9 = tail call noundef nonnull align 8 dereferenceable(8) ptr @_ZStlsISt11char_traitsIcEERSt13basic_ostreamIcT_ES5_PKc(ptr noundef nonnull align 8 dereferenceable(8) %call5, ptr noundef nonnull @.str.7)
  br label %for.inc

for.inc:                                          ; preds = %for.body, %if.then
  %incdec.ptr = getelementptr inbounds i8, ptr %__begin1.013, i64 24
  %cmp.not = icmp eq ptr %incdec.ptr, %add.ptr.i
  br i1 %cmp.not, label %for.end, label %for.body

for.end:                                          ; preds = %for.inc, %entry, %_ZNK6vectorIN3smt10theory_seq8expr_depELb0EjE3endEv.exit
  ret void
}